target datalayout = "e-m:e-p270:32:32-p271:32:32-p272:64:64-i64:64-i128:128-f80:128-n8:16:32:64-S128"
target triple = "x86_64-pc-linux-gnu"

@hf_opcua_nodeClassMask = hidden global i32 0, align 4
@hf_opcua_nodeClassMask_all = hidden global i32 0, align 4
@ett_opcua_nodeClassMask = hidden global i32 0, align 4

; Function Attrs: null_pointer_is_valid sspstrong uwtable
define hidden void @parseNodeClassMask(ptr noundef %0, ptr noundef %1, ptr noundef %2, ptr noundef %3) #0 {
  %5 = alloca ptr, align 8
  %6 = alloca ptr, align 8
  %7 = alloca ptr, align 8
  %8 = alloca ptr, align 8
  %9 = alloca i8, align 1
  store ptr %0, ptr %5, align 8
  store ptr %1, ptr %6, align 8
  store ptr %2, ptr %7, align 8
  store ptr %3, ptr %8, align 8
  call void @llvm.lifetime.start.p0(i64 1, ptr %9) #3
  %10 = load ptr, ptr %6, align 8
  %11 = load ptr, ptr %8, align 8
  %12 = load i32, ptr %11, align 4
  %13 = call zeroext i8 @tvb_get_uint8(ptr noundef %10, i32 noundef %12)
  store i8 %13, ptr %9, align 1
  %14 = load i8, ptr %9, align 1
  %15 = zext i8 %14 to i32
  %16 = icmp eq i32 %15, 0
  br i1 %16, label %17, label %24

17:                                               ; preds = %4
  %18 = load ptr, ptr %5, align 8
  %19 = load i32, ptr @hf_opcua_nodeClassMask_all, align 4
  %20 = load ptr, ptr %6, align 8
  %21 = load ptr, ptr %8, align 8
  %22 = load i32, ptr %21, align 4
  %23 = call ptr @proto_tree_add_item(ptr noundef %18, i32 noundef %19, ptr noundef %20, i32 noundef %22, i32 noundef 4, i32 noundef -2147483648)
  br label %32

24:                                               ; preds = %4
  %25 = load ptr, ptr %5, align 8
  %26 = load ptr, ptr %6, align 8
  %27 = load ptr, ptr %8, align 8
  %28 = load i32, ptr %27, align 4
  %29 = load i32, ptr @hf_opcua_nodeClassMask, align 4
  %30 = load i32, ptr @ett_opcua_nodeClassMask, align 4
  %31 = call ptr @proto_tree_add_bitmask(ptr noundef %25, ptr noundef %26, i32 noundef %28, i32 noundef %29, i32 noundef %30, ptr noundef @parseNodeClassMask.nodeclass_mask, i32 noundef -2147483648)
  br label %32

32:                                               ; preds = %24, %17
  %33 = load ptr, ptr %8, align 8
  %34 = load i32, ptr %33, align 4
  %35 = add i32 %34, 4
  store i32 %35, ptr %33, align 4
  call void @llvm.lifetime.end.p0(i64 1, ptr %9) #3
  ret void
}