; Function Attrs: null_pointer_is_valid sspstrong uwtable
define hidden void @parseNodeClassMask(ptr noundef %0, ptr noundef %1, ptr noundef readnone captures(none) %2, ptr noundef captures(none) %3) local_unnamed_addr #0 {
  %5 = load i32, ptr %3, align 4
  %6 = tail call zeroext i8 @tvb_get_uint8(ptr noundef %1, i32 noundef %5)
  %7 = icmp eq i8 %6, 0
  br i1 %7, label %8, label %12

8:                                                ; preds = %4
  %9 = load i32, ptr @hf_opcua_nodeClassMask_all, align 4
  %10 = load i32, ptr %3, align 4
  %11 = tail call ptr @proto_tree_add_item(ptr noundef %0, i32 noundef %9, ptr noundef %1, i32 noundef %10, i32 noundef 4, i32 noundef -2147483648)
  br label %17

12:                                               ; preds = %4
  %13 = load i32, ptr %3, align 4
  %14 = load i32, ptr @hf_opcua_nodeClassMask, align 4
  %15 = load i32, ptr @ett_opcua_nodeClassMask, align 4
  %16 = tail call ptr @proto_tree_add_bitmask(ptr noundef %0, ptr noundef %1, i32 noundef %13, i32 noundef %14, i32 noundef %15, ptr noundef nonnull @parseNodeClassMask.nodeclass_mask, i32 noundef -2147483648)
  br label %17

17:                                               ; preds = %12, %8
  %18 = load i32, ptr %3, align 4
  %19 = add i32 %18, 4
  store i32 %19, ptr %3, align 4
  ret void
}